; Function Attrs: nounwind uwtable
define internal zeroext i1 @setRuleCheckAsUser_walker(ptr noundef %0, ptr noundef %1) #0 {
  %3 = icmp eq ptr %0, null
  br i1 %3, label %11, label %4

4:                                                ; preds = %2
  %5 = load i32, ptr %0, align 4
  %6 = icmp eq i32 %5, 67
  br i1 %6, label %7, label %9

7:                                                ; preds = %4
  %8 = load i32, ptr %1, align 4
  tail call fastcc void @setRuleCheckAsUser_Query(ptr noundef nonnull %0, i32 noundef %8)
  br label %11

9:                                                ; preds = %4
  %10 = tail call zeroext i1 @expression_tree_walker_impl(ptr noundef nonnull %0, ptr noundef nonnull @setRuleCheckAsUser_walker, ptr noundef %1) #6
  br label %11

11:                                               ; preds = %2, %9, %7
  %.0 = phi i1 [ false, %7 ], [ %10, %9 ], [ false, %2 ]
  ret i1 %.0
}